; Function Attrs: mustprogress uwtable
define void @_ZN8proxygen2hq14HQControlCodec23parsePushPriorityUpdateERN5folly2io6CursorERKNS0_11FrameHeaderE(ptr noalias sret(%"class.folly::Optional") align 8 %agg.result, ptr nocapture noundef nonnull readonly align 16 dereferenceable(232) %this, ptr noundef nonnull align 8 dereferenceable(56) %cursor, ptr noundef nonnull align 8 dereferenceable(16) %header) unnamed_addr #7 align 2 personality ptr @__gxx_personality_v0 {
entry:
  %prioritizedElement = alloca i64, align 8
  %priorityUpdate = alloca %"struct.proxygen::HTTPPriority", align 8
  store ptr getelementptr inbounds ({ [4 x ptr] }, ptr @_ZTVN8proxygen12HTTPPriorityE, i64 0, i32 0, i64 2), ptr %priorityUpdate, align 8
  %urgency.i = getelementptr inbounds i8, ptr %priorityUpdate, i64 8
  store i64 11, ptr %urgency.i, align 8
  call void @_ZN8proxygen2hq19parsePriorityUpdateERN5folly2io6CursorERKNS0_11FrameHeaderERmRNS_12HTTPPriorityE(ptr sret(%"class.folly::Optional") align 8 %agg.result, ptr noundef nonnull align 8 dereferenceable(56) %cursor, ptr noundef nonnull align 8 dereferenceable(16) %header, ptr noundef nonnull align 8 dereferenceable(8) %prioritizedElement, ptr noundef nonnull align 8 dereferenceable(16) %priorityUpdate) #25
  %hasValue.i.i = getelementptr inbounds i8, ptr %agg.result, i64 8
  %0 = load i8, ptr %hasValue.i.i, align 8
  %1 = and i8 %0, 1
  %tobool.i.i.not = icmp eq i8 %1, 0
  br i1 %tobool.i.i.not, label %if.then, label %if.end

if.then:                                          ; preds = %entry
  %callback_ = getelementptr inbounds i8, ptr %this, i64 56
  %2 = load ptr, ptr %callback_, align 8
  %3 = load i64, ptr %prioritizedElement, align 8
  %vtable = load ptr, ptr %2, align 8
  %vfn = getelementptr inbounds i8, ptr %vtable, i64 168
  %4 = load ptr, ptr %vfn, align 8
  call void %4(ptr noundef nonnull align 8 dereferenceable(8) %2, i64 noundef %3, ptr noundef nonnull align 8 dereferenceable(16) %priorityUpdate)
  br label %if.end

if.end:                                           ; preds = %if.then, %entry
  ret void
}